target datalayout = "e-m:e-p270:32:32-p271:32:32-p272:64:64-i64:64-i128:128-f80:128-n8:16:32:64-S128"
target triple = "x86_64-pc-linux-gnu"

%"class.llvm::SmallVectorBase" = type { ptr, i32, i32 }
%"class.llvm::RegBankSelect::RepairingPlacement" = type { i32, i32, i8, i8, %"class.llvm::SmallVector.215", ptr }
%"class.llvm::SmallVector.215" = type { %"class.llvm::SmallVectorImpl.216", %"struct.llvm::SmallVectorStorage.219" }
%"class.llvm::SmallVectorImpl.216" = type { %"class.llvm::SmallVectorTemplateBase.217" }
%"class.llvm::SmallVectorTemplateBase.217" = type { %"class.llvm::SmallVectorTemplateCommon.218" }
%"class.llvm::SmallVectorTemplateCommon.218" = type { %"class.llvm::SmallVectorBase" }
%"struct.llvm::SmallVectorStorage.219" = type { [16 x i8] }
%"class.llvm::RegBankSelect::InsertPoint.base" = type <{ ptr, i8 }>
%"class.llvm::RegBankSelect::EdgeInsertPoint" = type { %"class.llvm::RegBankSelect::InsertPoint.base", ptr, ptr, ptr }
%"class.llvm::RegBankSelect::InsertPoint" = type <{ ptr, i8, [7 x i8] }>

; Function Attrs: mustprogress nounwind uwtable
define linkonce_odr hidden void @_ZN4llvm13RegBankSelect11InsertPointC2Ev(ptr noundef nonnull align 8 dereferenceable(9) %0) unnamed_addr #1 comdat align 2 {
  %2 = alloca ptr, align 8
  store ptr %0, ptr %2, align 8
  %3 = load ptr, ptr %2, align 8
  store ptr getelementptr inbounds inrange(-16, 64) ({ [10 x ptr] }, ptr @_ZTVN4llvm13RegBankSelect11InsertPointE, i32 0, i32 0, i32 2), ptr %3, align 8
  %4 = getelementptr inbounds nuw %"class.llvm::RegBankSelect::InsertPoint", ptr %3, i32 0, i32 1
  store i8 0, ptr %4, align 8
  ret void
}

; Function Attrs: mustprogress nounwind uwtable
define dso_local void @_ZN4llvm13RegBankSelect18RepairingPlacement14addInsertPointERNS0_11InsertPointE(ptr noundef nonnull align 8 dereferenceable(56) %0, ptr noundef nonnull align 8 dereferenceable(9) %1) #1 align 2 {
  %3 = alloca ptr, align 8
  %4 = alloca ptr, align 8
  %5 = alloca ptr, align 8
  store ptr %0, ptr %3, align 8
  store ptr %1, ptr %4, align 8
  %6 = load ptr, ptr %3, align 8
  %7 = load ptr, ptr %4, align 8
  %8 = load ptr, ptr %7, align 8
  %9 = getelementptr inbounds ptr, ptr %8, i64 7
  %10 = load ptr, ptr %9, align 8
  %11 = call noundef zeroext i1 %10(ptr noundef nonnull align 8 dereferenceable(9) %7)
  %12 = zext i1 %11 to i32
  %13 = getelementptr inbounds nuw %"class.llvm::RegBankSelect::RepairingPlacement", ptr %6, i32 0, i32 2
  %14 = load i8, ptr %13, align 8
  %15 = trunc i8 %14 to i1
  %16 = zext i1 %15 to i32
  %17 = and i32 %16, %12
  %18 = icmp ne i32 %17, 0
  %19 = zext i1 %18 to i8
  store i8 %19, ptr %13, align 8
  %20 = load ptr, ptr %4, align 8
  %21 = load ptr, ptr %20, align 8
  %22 = getelementptr inbounds ptr, ptr %21, i64 5
  %23 = load ptr, ptr %22, align 8
  %24 = call noundef zeroext i1 %23(ptr noundef nonnull align 8 dereferenceable(9) %20)
  %25 = zext i1 %24 to i32
  %26 = getelementptr inbounds nuw %"class.llvm::RegBankSelect::RepairingPlacement", ptr %6, i32 0, i32 3
  %27 = load i8, ptr %26, align 1
  %28 = trunc i8 %27 to i1
  %29 = zext i1 %28 to i32
  %30 = or i32 %29, %25
  %31 = icmp ne i32 %30, 0
  %32 = zext i1 %31 to i8
  store i8 %32, ptr %26, align 1
  %33 = getelementptr inbounds nuw %"class.llvm::RegBankSelect::RepairingPlacement", ptr %6, i32 0, i32 4
  %34 = load ptr, ptr %4, align 8
  store ptr %34, ptr %5, align 8
  %35 = call noundef nonnull align 8 dereferenceable(8) ptr @_ZN4llvm15SmallVectorImplISt10unique_ptrINS_13RegBankSelect11InsertPointESt14default_deleteIS3_EEE12emplace_backIJPS3_EEERS6_DpOT_(ptr noundef nonnull align 8 dereferenceable(16) %33, ptr noundef nonnull align 8 dereferenceable(8) %5)
  ret void
}

; Function Attrs: mustprogress nounwind uwtable
define linkonce_odr hidden void @_ZN4llvm13RegBankSelect15EdgeInsertPointC2ERNS_17MachineBasicBlockES3_RNS_4PassE(ptr noundef nonnull align 8 dereferenceable(40) %0, ptr noundef nonnull align 8 dereferenceable(288) %1, ptr noundef nonnull align 8 dereferenceable(288) %2, ptr noundef nonnull align 8 dereferenceable(28) %3) unnamed_addr #1 comdat align 2 {
  %5 = alloca ptr, align 8
  %6 = alloca ptr, align 8
  %7 = alloca ptr, align 8
  %8 = alloca ptr, align 8
  store ptr %0, ptr %5, align 8
  store ptr %1, ptr %6, align 8
  store ptr %2, ptr %7, align 8
  store ptr %3, ptr %8, align 8
  %9 = load ptr, ptr %5, align 8
  call void @_ZN4llvm13RegBankSelect11InsertPointC2Ev(ptr noundef nonnull align 8 dereferenceable(9) %9) #2
  store ptr getelementptr inbounds inrange(-16, 64) ({ [10 x ptr] }, ptr @_ZTVN4llvm13RegBankSelect15EdgeInsertPointE, i32 0, i32 0, i32 2), ptr %9, align 8
  %10 = getelementptr inbounds nuw %"class.llvm::RegBankSelect::EdgeInsertPoint", ptr %9, i32 0, i32 1
  %11 = load ptr, ptr %6, align 8
  store ptr %11, ptr %10, align 8
  %12 = getelementptr inbounds nuw %"class.llvm::RegBankSelect::EdgeInsertPoint", ptr %9, i32 0, i32 2
  %13 = load ptr, ptr %7, align 8
  store ptr %13, ptr %12, align 8
  %14 = getelementptr inbounds nuw %"class.llvm::RegBankSelect::EdgeInsertPoint", ptr %9, i32 0, i32 3
  %15 = load ptr, ptr %8, align 8
  store ptr %15, ptr %14, align 8
  ret void
}

; Function Attrs: mustprogress nounwind uwtable
define dso_local void @_ZN4llvm13RegBankSelect18RepairingPlacement14addInsertPointERNS_17MachineBasicBlockES3_(ptr noundef nonnull align 8 dereferenceable(56) %0, ptr noundef nonnull align 8 dereferenceable(288) %1, ptr noundef nonnull align 8 dereferenceable(288) %2) #1 align 2 {
  %4 = alloca ptr, align 8
  %5 = alloca ptr, align 8
  %6 = alloca ptr, align 8
  store ptr %0, ptr %4, align 8
  store ptr %1, ptr %5, align 8
  store ptr %2, ptr %6, align 8
  %7 = load ptr, ptr %4, align 8
  %8 = call noalias noundef nonnull ptr @_Znwm(i64 noundef 40) #13
  %9 = load ptr, ptr %5, align 8
  %10 = load ptr, ptr %6, align 8
  %11 = getelementptr inbounds nuw %"class.llvm::RegBankSelect::RepairingPlacement", ptr %7, i32 0, i32 5
  %12 = load ptr, ptr %11, align 8
  call void @_ZN4llvm13RegBankSelect15EdgeInsertPointC2ERNS_17MachineBasicBlockES3_RNS_4PassE(ptr noundef nonnull align 8 dereferenceable(40) %8, ptr noundef nonnull align 8 dereferenceable(288) %9, ptr noundef nonnull align 8 dereferenceable(288) %10, ptr noundef nonnull align 8 dereferenceable(28) %12)
  call void @_ZN4llvm13RegBankSelect18RepairingPlacement14addInsertPointERNS0_11InsertPointE(ptr noundef nonnull align 8 dereferenceable(56) %7, ptr noundef nonnull align 8 dereferenceable(9) %8)
  ret void
}