; Function Attrs: mustprogress nounwind uwtable
define dso_local void @_ZN4llvm13RegBankSelect18RepairingPlacement14addInsertPointERNS_17MachineBasicBlockES3_(ptr noundef nonnull align 8 dereferenceable(56) %0, ptr noundef nonnull align 8 dereferenceable(288) %1, ptr noundef nonnull align 8 dereferenceable(288) %2) local_unnamed_addr #0 align 2 {
  %4 = alloca ptr, align 8
  %5 = tail call noalias noundef nonnull dereferenceable(40) ptr @_Znwm(i64 noundef 40) #23
  %6 = getelementptr inbounds nuw i8, ptr %0, i64 48
  %7 = load ptr, ptr %6, align 8
  %8 = getelementptr inbounds nuw i8, ptr %5, i64 8
  store i8 0, ptr %8, align 8
  store ptr getelementptr inbounds nuw inrange(-16, 64) (i8, ptr @_ZTVN4llvm13RegBankSelect15EdgeInsertPointE, i64 16), ptr %5, align 8
  %9 = getelementptr inbounds nuw i8, ptr %5, i64 16
  store ptr %1, ptr %9, align 8
  %10 = getelementptr inbounds nuw i8, ptr %5, i64 24
  store ptr %2, ptr %10, align 8
  %11 = getelementptr inbounds nuw i8, ptr %5, i64 32
  store ptr %7, ptr %11, align 8
  call void @llvm.lifetime.start.p0(i64 8, ptr nonnull %4)
  %12 = tail call noundef zeroext i1 @_ZNK4llvm17MachineBasicBlock20canSplitCriticalEdgeEPKS0_(ptr noundef nonnull align 8 dereferenceable(288) %1, ptr noundef nonnull %2) #21
  %13 = getelementptr inbounds nuw i8, ptr %0, i64 8
  %14 = load i8, ptr %13, align 8
  %15 = and i8 %14, 1
  %16 = icmp ne i8 %15, 0
  %17 = select i1 %12, i1 %16, i1 false
  %18 = zext i1 %17 to i8
  store i8 %18, ptr %13, align 8
  %19 = getelementptr inbounds nuw i8, ptr %1, i64 112
  %20 = tail call noundef i64 @_ZNK4llvm15SmallVectorBaseIjE4sizeEv(ptr noundef nonnull align 8 dereferenceable(16) %19) #21
  %21 = and i64 %20, 4294967294
  %.not.i = icmp eq i64 %21, 0
  br i1 %.not.i, label %_ZNK4llvm13RegBankSelect15EdgeInsertPoint7isSplitEv.exit, label %22

22:                                               ; preds = %3
  %23 = getelementptr inbounds nuw i8, ptr %2, i64 64
  %24 = tail call noundef i64 @_ZNK4llvm15SmallVectorBaseIjE4sizeEv(ptr noundef nonnull align 8 dereferenceable(16) %23) #21
  %25 = and i64 %24, 4294967294
  %26 = icmp ne i64 %25, 0
  %27 = zext i1 %26 to i8
  br label %_ZNK4llvm13RegBankSelect15EdgeInsertPoint7isSplitEv.exit

_ZNK4llvm13RegBankSelect15EdgeInsertPoint7isSplitEv.exit: ; preds = %3, %22
  %28 = phi i8 [ 0, %3 ], [ %27, %22 ]
  %29 = getelementptr inbounds nuw i8, ptr %0, i64 9
  %30 = load i8, ptr %29, align 1
  %31 = and i8 %30, 1
  %32 = or i8 %31, %28
  store i8 %32, ptr %29, align 1
  %33 = getelementptr inbounds nuw i8, ptr %0, i64 16
  store ptr %5, ptr %4, align 8
  %34 = call noundef nonnull align 8 dereferenceable(8) ptr @_ZN4llvm15SmallVectorImplISt10unique_ptrINS_13RegBankSelect11InsertPointESt14default_deleteIS3_EEE12emplace_backIJPS3_EEERS6_DpOT_(ptr noundef nonnull align 8 dereferenceable(16) %33, ptr noundef nonnull align 8 dereferenceable(8) %4)
  call void @llvm.lifetime.end.p0(i64 8, ptr nonnull %4)
  ret void
}